; Function Attrs: mustprogress uwtable
define dso_local void @_ZN4absl9StrAppendEPNSt7__cxx1112basic_stringIcSt11char_traitsIcESaIcEEERKNS_8AlphaNumES9_S9_(ptr noundef nonnull %0, ptr noundef nonnull readonly align 8 captures(none) dereferenceable(48) %1, ptr noundef nonnull readonly align 8 captures(none) dereferenceable(48) %2, ptr noundef nonnull readonly align 8 captures(none) dereferenceable(48) %3) local_unnamed_addr #0 {
  %5 = getelementptr inbounds nuw i8, ptr %0, i64 8
  %6 = load i64, ptr %5, align 8, !tbaa !10
  %7 = load i64, ptr %1, align 8, !tbaa !14
  %8 = load i64, ptr %2, align 8, !tbaa !14
  %9 = add i64 %8, %7
  %10 = load i64, ptr %3, align 8, !tbaa !14
  %11 = add i64 %9, %10
  %12 = tail call noundef nonnull align 8 dereferenceable(32) ptr @_ZNSt7__cxx1112basic_stringIcSt11char_traitsIcESaIcEE14_M_replace_auxEmmmc(ptr noundef nonnull align 8 dereferenceable(32) %0, i64 noundef %6, i64 noundef 0, i64 noundef %11, i8 noundef signext 0)
  %13 = load ptr, ptr %0, align 8, !tbaa !16
  %14 = getelementptr inbounds nuw i8, ptr %13, i64 %6
  %.val16 = load i64, ptr %1, align 8, !tbaa !14
  %.not.i = icmp eq i64 %.val16, 0
  br i1 %.not.i, label %_ZN4absl12_GLOBAL__N_16AppendEPcRKNS_8AlphaNumE.exit, label %15

15:                                               ; preds = %4
  %16 = getelementptr inbounds nuw i8, ptr %1, i64 8
  %.val17 = load ptr, ptr %16, align 8
  tail call void @llvm.memcpy.p0.p0.i64(ptr nonnull align 1 %14, ptr readonly align 1 %.val17, i64 %.val16, i1 false)
  br label %_ZN4absl12_GLOBAL__N_16AppendEPcRKNS_8AlphaNumE.exit

_ZN4absl12_GLOBAL__N_16AppendEPcRKNS_8AlphaNumE.exit: ; preds = %4, %15
  %17 = getelementptr inbounds nuw i8, ptr %14, i64 %.val16
  %.val14 = load i64, ptr %2, align 8, !tbaa !14
  %.not.i18 = icmp eq i64 %.val14, 0
  br i1 %.not.i18, label %_ZN4absl12_GLOBAL__N_16AppendEPcRKNS_8AlphaNumE.exit19, label %18

18:                                               ; preds = %_ZN4absl12_GLOBAL__N_16AppendEPcRKNS_8AlphaNumE.exit
  %19 = getelementptr inbounds nuw i8, ptr %2, i64 8
  %.val15 = load ptr, ptr %19, align 8
  tail call void @llvm.memcpy.p0.p0.i64(ptr nonnull align 1 %17, ptr readonly align 1 %.val15, i64 %.val14, i1 false)
  br label %_ZN4absl12_GLOBAL__N_16AppendEPcRKNS_8AlphaNumE.exit19

_ZN4absl12_GLOBAL__N_16AppendEPcRKNS_8AlphaNumE.exit19: ; preds = %_ZN4absl12_GLOBAL__N_16AppendEPcRKNS_8AlphaNumE.exit, %18
  %.val = load i64, ptr %3, align 8, !tbaa !14
  %.not.i20 = icmp eq i64 %.val, 0
  br i1 %.not.i20, label %_ZN4absl12_GLOBAL__N_16AppendEPcRKNS_8AlphaNumE.exit21, label %20

20:                                               ; preds = %_ZN4absl12_GLOBAL__N_16AppendEPcRKNS_8AlphaNumE.exit19
  %21 = getelementptr inbounds nuw i8, ptr %3, i64 8
  %.val13 = load ptr, ptr %21, align 8
  %22 = getelementptr inbounds nuw i8, ptr %17, i64 %.val14
  tail call void @llvm.memcpy.p0.p0.i64(ptr nonnull align 1 %22, ptr readonly align 1 %.val13, i64 %.val, i1 false)
  br label %_ZN4absl12_GLOBAL__N_16AppendEPcRKNS_8AlphaNumE.exit21

_ZN4absl12_GLOBAL__N_16AppendEPcRKNS_8AlphaNumE.exit21: ; preds = %_ZN4absl12_GLOBAL__N_16AppendEPcRKNS_8AlphaNumE.exit19, %20
  ret void
}